target datalayout = "e-m:e-p270:32:32-p271:32:32-p272:64:64-i64:64-i128:128-f80:128-n8:16:32:64-S128"
target triple = "x86_64-pc-linux-gnu"

%struct.AVFilterContext = type { ptr, ptr, ptr, ptr, ptr, i32, ptr, ptr, i32, ptr, ptr, i32, i32, ptr, ptr, ptr, ptr, i32, ptr, i32, i32 }
%struct.OverlayContext = type { ptr, i32, i32, i8, [4 x i8], i8, i8, [4 x i8], i8, i32, i32, i32, %struct.FFFrameSync, [4 x i32], [4 x i32], i32, i32, ptr, [14 x double], ptr, ptr, ptr, ptr, [4 x ptr], ptr }
%struct.FFFrameSync = type { ptr, ptr, i32, %struct.AVRational, i64, ptr, ptr, i32, i32, i8, i8, ptr, i32, i32, i32, i32 }
%struct.AVRational = type { i32, i32 }

@.str.6 = private unnamed_addr constant [2 x i8] c"x\00", align 1
@.str.7 = private unnamed_addr constant [2 x i8] c"y\00", align 1
@.str.8 = private unnamed_addr constant [23 x i8] c"x:%f xi:%d y:%f yi:%d\0A\00", align 1
@var_names = internal constant [15 x ptr] [ptr @.str.11, ptr @.str.12, ptr @.str.13, ptr @.str.14, ptr @.str.15, ptr @.str.16, ptr @.str.17, ptr @.str.18, ptr @.str.19, ptr @.str.20, ptr @.str.6, ptr @.str.7, ptr @.str.21, ptr @.str.22, ptr null], align 16
@.str.10 = private unnamed_addr constant [50 x i8] c"Error when evaluating the expression '%s' for %s\0A\00", align 1

; Function Attrs: inlinehint nounwind uwtable
define internal i32 @normalize_xy(double noundef %0, i32 noundef %1) #6 {
  %3 = alloca i32, align 4
  %4 = alloca double, align 8
  %5 = alloca i32, align 4
  store double %0, ptr %4, align 8, !tbaa !45
  store i32 %1, ptr %5, align 4, !tbaa !42
  %6 = load double, ptr %4, align 8, !tbaa !45
  %7 = call i1 @llvm.is.fpclass.f64(double %6, i32 3)
  br i1 %7, label %8, label %9

8:                                                ; preds = %2
  store i32 2147483647, ptr %3, align 4
  br label %17

9:                                                ; preds = %2
  %10 = load double, ptr %4, align 8, !tbaa !45
  %11 = fptosi double %10 to i32
  %12 = load i32, ptr %5, align 4, !tbaa !42
  %13 = shl i32 1, %12
  %14 = sub nsw i32 %13, 1
  %15 = xor i32 %14, -1
  %16 = and i32 %11, %15
  store i32 %16, ptr %3, align 4
  br label %17

17:                                               ; preds = %9, %8
  %18 = load i32, ptr %3, align 4
  ret i32 %18
}

; Function Attrs: nounwind uwtable
define internal void @eval_expr(ptr noundef %0) #0 {
  %2 = alloca ptr, align 8
  %3 = alloca ptr, align 8
  store ptr %0, ptr %2, align 8, !tbaa !4
  call void @llvm.lifetime.start.p0(i64 8, ptr %3) #12
  %4 = load ptr, ptr %2, align 8, !tbaa !4
  %5 = getelementptr inbounds nuw %struct.AVFilterContext, ptr %4, i32 0, i32 9
  %6 = load ptr, ptr %5, align 8, !tbaa !9
  store ptr %6, ptr %3, align 8, !tbaa !22
  %7 = load ptr, ptr %3, align 8, !tbaa !22
  %8 = getelementptr inbounds nuw %struct.OverlayContext, ptr %7, i32 0, i32 21
  %9 = load ptr, ptr %8, align 8, !tbaa !32
  %10 = load ptr, ptr %3, align 8, !tbaa !22
  %11 = getelementptr inbounds nuw %struct.OverlayContext, ptr %10, i32 0, i32 18
  %12 = getelementptr inbounds [14 x double], ptr %11, i64 0, i64 0
  %13 = call nsz double @av_expr_eval(ptr noundef %9, ptr noundef %12, ptr noundef null)
  %14 = load ptr, ptr %3, align 8, !tbaa !22
  %15 = getelementptr inbounds nuw %struct.OverlayContext, ptr %14, i32 0, i32 18
  %16 = getelementptr inbounds [14 x double], ptr %15, i64 0, i64 10
  store double %13, ptr %16, align 8, !tbaa !45
  %17 = load ptr, ptr %3, align 8, !tbaa !22
  %18 = getelementptr inbounds nuw %struct.OverlayContext, ptr %17, i32 0, i32 22
  %19 = load ptr, ptr %18, align 8, !tbaa !33
  %20 = load ptr, ptr %3, align 8, !tbaa !22
  %21 = getelementptr inbounds nuw %struct.OverlayContext, ptr %20, i32 0, i32 18
  %22 = getelementptr inbounds [14 x double], ptr %21, i64 0, i64 0
  %23 = call nsz double @av_expr_eval(ptr noundef %19, ptr noundef %22, ptr noundef null)
  %24 = load ptr, ptr %3, align 8, !tbaa !22
  %25 = getelementptr inbounds nuw %struct.OverlayContext, ptr %24, i32 0, i32 18
  %26 = getelementptr inbounds [14 x double], ptr %25, i64 0, i64 11
  store double %23, ptr %26, align 8, !tbaa !45
  %27 = load ptr, ptr %3, align 8, !tbaa !22
  %28 = getelementptr inbounds nuw %struct.OverlayContext, ptr %27, i32 0, i32 21
  %29 = load ptr, ptr %28, align 8, !tbaa !32
  %30 = load ptr, ptr %3, align 8, !tbaa !22
  %31 = getelementptr inbounds nuw %struct.OverlayContext, ptr %30, i32 0, i32 18
  %32 = getelementptr inbounds [14 x double], ptr %31, i64 0, i64 0
  %33 = call nsz double @av_expr_eval(ptr noundef %29, ptr noundef %32, ptr noundef null)
  %34 = load ptr, ptr %3, align 8, !tbaa !22
  %35 = getelementptr inbounds nuw %struct.OverlayContext, ptr %34, i32 0, i32 18
  %36 = getelementptr inbounds [14 x double], ptr %35, i64 0, i64 10
  store double %33, ptr %36, align 8, !tbaa !45
  %37 = load ptr, ptr %3, align 8, !tbaa !22
  %38 = getelementptr inbounds nuw %struct.OverlayContext, ptr %37, i32 0, i32 18
  %39 = getelementptr inbounds [14 x double], ptr %38, i64 0, i64 10
  %40 = load double, ptr %39, align 8, !tbaa !45
  %41 = load ptr, ptr %3, align 8, !tbaa !22
  %42 = getelementptr inbounds nuw %struct.OverlayContext, ptr %41, i32 0, i32 15
  %43 = load i32, ptr %42, align 8, !tbaa !61
  %44 = call i32 @normalize_xy(double noundef %40, i32 noundef %43)
  %45 = load ptr, ptr %3, align 8, !tbaa !22
  %46 = getelementptr inbounds nuw %struct.OverlayContext, ptr %45, i32 0, i32 1
  store i32 %44, ptr %46, align 8, !tbaa !47
  %47 = load ptr, ptr %3, align 8, !tbaa !22
  %48 = getelementptr inbounds nuw %struct.OverlayContext, ptr %47, i32 0, i32 18
  %49 = getelementptr inbounds [14 x double], ptr %48, i64 0, i64 11
  %50 = load double, ptr %49, align 8, !tbaa !45
  %51 = load ptr, ptr %3, align 8, !tbaa !22
  %52 = getelementptr inbounds nuw %struct.OverlayContext, ptr %51, i32 0, i32 16
  %53 = load i32, ptr %52, align 4, !tbaa !63
  %54 = call i32 @normalize_xy(double noundef %50, i32 noundef %53)
  %55 = load ptr, ptr %3, align 8, !tbaa !22
  %56 = getelementptr inbounds nuw %struct.OverlayContext, ptr %55, i32 0, i32 2
  store i32 %54, ptr %56, align 4, !tbaa !48
  call void @llvm.lifetime.end.p0(i64 8, ptr %3) #12
  ret void
}

; Function Attrs: nounwind uwtable
define internal i32 @set_expr(ptr noundef %0, ptr noundef %1, ptr noundef %2, ptr noundef %3) #0 {
  %5 = alloca i32, align 4
  %6 = alloca ptr, align 8
  %7 = alloca ptr, align 8
  %8 = alloca ptr, align 8
  %9 = alloca ptr, align 8
  %10 = alloca i32, align 4
  %11 = alloca ptr, align 8
  %12 = alloca i32, align 4
  store ptr %0, ptr %6, align 8, !tbaa !109
  store ptr %1, ptr %7, align 8, !tbaa !43
  store ptr %2, ptr %8, align 8, !tbaa !43
  store ptr %3, ptr %9, align 8, !tbaa !37
  call void @llvm.lifetime.start.p0(i64 4, ptr %10) #12
  call void @llvm.lifetime.start.p0(i64 8, ptr %11) #12
  store ptr null, ptr %11, align 8, !tbaa !111
  %13 = load ptr, ptr %6, align 8, !tbaa !109
  %14 = load ptr, ptr %13, align 8, !tbaa !111
  %15 = icmp ne ptr %14, null
  br i1 %15, label %16, label %19

16:                                               ; preds = %4
  %17 = load ptr, ptr %6, align 8, !tbaa !109
  %18 = load ptr, ptr %17, align 8, !tbaa !111
  store ptr %18, ptr %11, align 8, !tbaa !111
  br label %19

19:                                               ; preds = %16, %4
  %20 = load ptr, ptr %6, align 8, !tbaa !109
  %21 = load ptr, ptr %7, align 8, !tbaa !43
  %22 = load ptr, ptr %9, align 8, !tbaa !37
  %23 = call i32 @av_expr_parse(ptr noundef %20, ptr noundef %21, ptr noundef @var_names, ptr noundef null, ptr noundef null, ptr noundef null, ptr noundef null, i32 noundef 0, ptr noundef %22)
  store i32 %23, ptr %10, align 4, !tbaa !42
  %24 = load i32, ptr %10, align 4, !tbaa !42
  %25 = icmp slt i32 %24, 0
  br i1 %25, label %26, label %33

26:                                               ; preds = %19
  %27 = load ptr, ptr %9, align 8, !tbaa !37
  %28 = load ptr, ptr %7, align 8, !tbaa !43
  %29 = load ptr, ptr %8, align 8, !tbaa !43
  call void (ptr, i32, ptr, ...) @av_log(ptr noundef %27, i32 noundef 16, ptr noundef @.str.10, ptr noundef %28, ptr noundef %29)
  %30 = load ptr, ptr %11, align 8, !tbaa !111
  %31 = load ptr, ptr %6, align 8, !tbaa !109
  store ptr %30, ptr %31, align 8, !tbaa !111
  %32 = load i32, ptr %10, align 4, !tbaa !42
  store i32 %32, ptr %5, align 4
  store i32 1, ptr %12, align 4
  br label %35

33:                                               ; preds = %19
  %34 = load ptr, ptr %11, align 8, !tbaa !111
  call void @av_expr_free(ptr noundef %34)
  store i32 0, ptr %5, align 4
  store i32 1, ptr %12, align 4
  br label %35

35:                                               ; preds = %33, %26
  call void @llvm.lifetime.end.p0(i64 8, ptr %11) #12
  call void @llvm.lifetime.end.p0(i64 4, ptr %10) #12
  %36 = load i32, ptr %5, align 4
  ret i32 %36
}

; Function Attrs: nounwind uwtable
define internal i32 @process_command(ptr noundef %0, ptr noundef %1, ptr noundef %2, ptr noundef %3, i32 noundef %4, i32 noundef %5) #0 {
  %7 = alloca i32, align 4
  %8 = alloca ptr, align 8
  %9 = alloca ptr, align 8
  %10 = alloca ptr, align 8
  %11 = alloca ptr, align 8
  %12 = alloca i32, align 4
  %13 = alloca i32, align 4
  %14 = alloca ptr, align 8
  %15 = alloca i32, align 4
  %16 = alloca i32, align 4
  store ptr %0, ptr %8, align 8, !tbaa !4
  store ptr %1, ptr %9, align 8, !tbaa !43
  store ptr %2, ptr %10, align 8, !tbaa !43
  store ptr %3, ptr %11, align 8, !tbaa !43
  store i32 %4, ptr %12, align 4, !tbaa !42
  store i32 %5, ptr %13, align 4, !tbaa !42
  call void @llvm.lifetime.start.p0(i64 8, ptr %14) #12
  %17 = load ptr, ptr %8, align 8, !tbaa !4
  %18 = getelementptr inbounds nuw %struct.AVFilterContext, ptr %17, i32 0, i32 9
  %19 = load ptr, ptr %18, align 8, !tbaa !9
  store ptr %19, ptr %14, align 8, !tbaa !22
  call void @llvm.lifetime.start.p0(i64 4, ptr %15) #12
  %20 = load ptr, ptr %9, align 8, !tbaa !43
  %21 = call i32 @strcmp(ptr noundef %20, ptr noundef @.str.6) #14
  %22 = icmp ne i32 %21, 0
  br i1 %22, label %30, label %23

23:                                               ; preds = %6
  %24 = load ptr, ptr %14, align 8, !tbaa !22
  %25 = getelementptr inbounds nuw %struct.OverlayContext, ptr %24, i32 0, i32 21
  %26 = load ptr, ptr %10, align 8, !tbaa !43
  %27 = load ptr, ptr %9, align 8, !tbaa !43
  %28 = load ptr, ptr %8, align 8, !tbaa !4
  %29 = call i32 @set_expr(ptr noundef %25, ptr noundef %26, ptr noundef %27, ptr noundef %28)
  store i32 %29, ptr %15, align 4, !tbaa !42
  br label %43

30:                                               ; preds = %6
  %31 = load ptr, ptr %9, align 8, !tbaa !43
  %32 = call i32 @strcmp(ptr noundef %31, ptr noundef @.str.7) #14
  %33 = icmp ne i32 %32, 0
  br i1 %33, label %41, label %34

34:                                               ; preds = %30
  %35 = load ptr, ptr %14, align 8, !tbaa !22
  %36 = getelementptr inbounds nuw %struct.OverlayContext, ptr %35, i32 0, i32 22
  %37 = load ptr, ptr %10, align 8, !tbaa !43
  %38 = load ptr, ptr %9, align 8, !tbaa !43
  %39 = load ptr, ptr %8, align 8, !tbaa !4
  %40 = call i32 @set_expr(ptr noundef %36, ptr noundef %37, ptr noundef %38, ptr noundef %39)
  store i32 %40, ptr %15, align 4, !tbaa !42
  br label %42

41:                                               ; preds = %30
  store i32 -38, ptr %15, align 4, !tbaa !42
  br label %42

42:                                               ; preds = %41, %34
  br label %43

43:                                               ; preds = %42, %23
  %44 = load i32, ptr %15, align 4, !tbaa !42
  %45 = icmp slt i32 %44, 0
  br i1 %45, label %46, label %48

46:                                               ; preds = %43
  %47 = load i32, ptr %15, align 4, !tbaa !42
  store i32 %47, ptr %7, align 4
  store i32 1, ptr %16, align 4
  br label %72

48:                                               ; preds = %43
  %49 = load ptr, ptr %14, align 8, !tbaa !22
  %50 = getelementptr inbounds nuw %struct.OverlayContext, ptr %49, i32 0, i32 11
  %51 = load i32, ptr %50, align 4, !tbaa !44
  %52 = icmp eq i32 %51, 0
  br i1 %52, label %53, label %70

53:                                               ; preds = %48
  %54 = load ptr, ptr %8, align 8, !tbaa !4
  call void @eval_expr(ptr noundef %54)
  %55 = load ptr, ptr %8, align 8, !tbaa !4
  %56 = load ptr, ptr %14, align 8, !tbaa !22
  %57 = getelementptr inbounds nuw %struct.OverlayContext, ptr %56, i32 0, i32 18
  %58 = getelementptr inbounds [14 x double], ptr %57, i64 0, i64 10
  %59 = load double, ptr %58, align 8, !tbaa !45
  %60 = load ptr, ptr %14, align 8, !tbaa !22
  %61 = getelementptr inbounds nuw %struct.OverlayContext, ptr %60, i32 0, i32 1
  %62 = load i32, ptr %61, align 8, !tbaa !47
  %63 = load ptr, ptr %14, align 8, !tbaa !22
  %64 = getelementptr inbounds nuw %struct.OverlayContext, ptr %63, i32 0, i32 18
  %65 = getelementptr inbounds [14 x double], ptr %64, i64 0, i64 11
  %66 = load double, ptr %65, align 8, !tbaa !45
  %67 = load ptr, ptr %14, align 8, !tbaa !22
  %68 = getelementptr inbounds nuw %struct.OverlayContext, ptr %67, i32 0, i32 2
  %69 = load i32, ptr %68, align 4, !tbaa !48
  call void (ptr, i32, ptr, ...) @av_log(ptr noundef %55, i32 noundef 40, ptr noundef @.str.8, double noundef %59, i32 noundef %62, double noundef %66, i32 noundef %69)
  br label %70

70:                                               ; preds = %53, %48
  %71 = load i32, ptr %15, align 4, !tbaa !42
  store i32 %71, ptr %7, align 4
  store i32 1, ptr %16, align 4
  br label %72

72:                                               ; preds = %70, %46
  call void @llvm.lifetime.end.p0(i64 4, ptr %15) #12
  call void @llvm.lifetime.end.p0(i64 8, ptr %14) #12
  %73 = load i32, ptr %7, align 4
  ret i32 %73
}