; Function Attrs: nounwind uwtable
define internal range(i32 -2147483648, 1) i32 @process_command(ptr noundef %0, ptr noundef %1, ptr noundef %2, ptr readnone captures(none) %3, i32 %4, i32 %5) #0 {
sub_0:
  %6 = getelementptr inbounds nuw i8, ptr %0, i64 72
  %7 = load ptr, ptr %6, align 8, !tbaa !4
  %8 = load i8, ptr %1, align 1
  switch i8 %8, label %set_expr.exit.thread [
    i8 120, label %.tail
    i8 121, label %.tail27
  ]

.tail:                                            ; preds = %sub_0
  %9 = getelementptr inbounds nuw i8, ptr %1, i64 1
  %10 = load i8, ptr %9, align 1
  %11 = icmp eq i8 %10, 0
  br i1 %11, label %12, label %set_expr.exit.thread

12:                                               ; preds = %.tail
  %13 = getelementptr inbounds nuw i8, ptr %7, i64 312
  %14 = load ptr, ptr %13, align 8, !tbaa !34
  %15 = tail call i32 @av_expr_parse(ptr noundef nonnull %13, ptr noundef %2, ptr noundef nonnull @var_names, ptr noundef null, ptr noundef null, ptr noundef null, ptr noundef null, i32 noundef 0, ptr noundef nonnull %0) #10
  %16 = icmp slt i32 %15, 0
  br i1 %16, label %17, label %set_expr.exit

17:                                               ; preds = %12
  tail call void (ptr, i32, ptr, ...) @av_log(ptr noundef nonnull %0, i32 noundef 16, ptr noundef nonnull @.str.10, ptr noundef %2, ptr noundef nonnull %1) #10
  store ptr %14, ptr %13, align 8, !tbaa !34
  br label %set_expr.exit.thread

.tail27:                                          ; preds = %sub_0
  %18 = getelementptr inbounds nuw i8, ptr %1, i64 1
  %19 = load i8, ptr %18, align 1
  %20 = icmp eq i8 %19, 0
  br i1 %20, label %21, label %set_expr.exit.thread

21:                                               ; preds = %.tail27
  %22 = getelementptr inbounds nuw i8, ptr %7, i64 320
  %23 = load ptr, ptr %22, align 8, !tbaa !34
  %24 = tail call i32 @av_expr_parse(ptr noundef nonnull %22, ptr noundef %2, ptr noundef nonnull @var_names, ptr noundef null, ptr noundef null, ptr noundef null, ptr noundef null, i32 noundef 0, ptr noundef nonnull %0) #10
  %25 = icmp slt i32 %24, 0
  br i1 %25, label %26, label %set_expr.exit

26:                                               ; preds = %21
  tail call void (ptr, i32, ptr, ...) @av_log(ptr noundef nonnull %0, i32 noundef 16, ptr noundef nonnull @.str.10, ptr noundef %2, ptr noundef nonnull %1) #10
  store ptr %23, ptr %22, align 8, !tbaa !34
  br label %set_expr.exit.thread

set_expr.exit:                                    ; preds = %21, %12
  %.sink = phi ptr [ %14, %12 ], [ %23, %21 ]
  tail call void @av_expr_free(ptr noundef %.sink) #10
  %27 = getelementptr inbounds nuw i8, ptr %7, i64 36
  %28 = load i32, ptr %27, align 4, !tbaa !35
  %29 = icmp eq i32 %28, 0
  br i1 %29, label %30, label %set_expr.exit.thread

30:                                               ; preds = %set_expr.exit
  %.val = load ptr, ptr %6, align 8, !tbaa !4
  %31 = getelementptr inbounds nuw i8, ptr %.val, i64 312
  %32 = load ptr, ptr %31, align 8, !tbaa !29
  %33 = getelementptr inbounds nuw i8, ptr %.val, i64 184
  %34 = tail call nsz double @av_expr_eval(ptr noundef %32, ptr noundef nonnull %33, ptr noundef null) #10
  %35 = getelementptr inbounds nuw i8, ptr %.val, i64 264
  store double %34, ptr %35, align 8, !tbaa !36
  %36 = getelementptr inbounds nuw i8, ptr %.val, i64 320
  %37 = load ptr, ptr %36, align 8, !tbaa !30
  %38 = tail call nsz double @av_expr_eval(ptr noundef %37, ptr noundef nonnull %33, ptr noundef null) #10
  %39 = getelementptr inbounds nuw i8, ptr %.val, i64 272
  store double %38, ptr %39, align 8, !tbaa !36
  %40 = load ptr, ptr %31, align 8, !tbaa !29
  %41 = tail call nsz double @av_expr_eval(ptr noundef %40, ptr noundef nonnull %33, ptr noundef null) #10
  store double %41, ptr %35, align 8, !tbaa !36
  %42 = getelementptr inbounds nuw i8, ptr %.val, i64 168
  %43 = load i32, ptr %42, align 8, !tbaa !38
  %44 = fcmp uno double %41, 0.000000e+00
  %45 = fptosi double %41 to i32
  %notmask.i.i = shl nsw i32 -1, %43
  %46 = and i32 %notmask.i.i, %45
  %.0.i.i = select i1 %44, i32 2147483647, i32 %46
  %47 = getelementptr inbounds nuw i8, ptr %.val, i64 8
  store i32 %.0.i.i, ptr %47, align 8, !tbaa !39
  %48 = load double, ptr %39, align 8, !tbaa !36
  %49 = getelementptr inbounds nuw i8, ptr %.val, i64 172
  %50 = load i32, ptr %49, align 4, !tbaa !40
  %51 = fcmp uno double %48, 0.000000e+00
  %52 = fptosi double %48 to i32
  %notmask.i16.i = shl nsw i32 -1, %50
  %53 = and i32 %notmask.i16.i, %52
  %.0.i17.i = select i1 %51, i32 2147483647, i32 %53
  %54 = getelementptr inbounds nuw i8, ptr %.val, i64 12
  store i32 %.0.i17.i, ptr %54, align 4, !tbaa !41
  %55 = getelementptr inbounds nuw i8, ptr %7, i64 264
  %56 = load double, ptr %55, align 8, !tbaa !36
  %57 = getelementptr inbounds nuw i8, ptr %7, i64 8
  %58 = load i32, ptr %57, align 8, !tbaa !39
  %59 = getelementptr inbounds nuw i8, ptr %7, i64 272
  %60 = load double, ptr %59, align 8, !tbaa !36
  %61 = getelementptr inbounds nuw i8, ptr %7, i64 12
  %62 = load i32, ptr %61, align 4, !tbaa !41
  tail call void (ptr, i32, ptr, ...) @av_log(ptr noundef nonnull %0, i32 noundef 40, ptr noundef nonnull @.str.8, double noundef %56, i32 noundef %58, double noundef %60, i32 noundef %62) #10
  br label %set_expr.exit.thread

set_expr.exit.thread:                             ; preds = %sub_0, %.tail, %26, %17, %.tail27, %set_expr.exit, %30
  %.026 = phi i32 [ 0, %set_expr.exit ], [ 0, %30 ], [ %24, %26 ], [ %15, %17 ], [ -38, %.tail27 ], [ -38, %.tail ], [ -38, %sub_0 ]
  ret i32 %.026
}